(i__main__
LogFile
p0
(dp1
S'_installed_files'
p2
(dp3
S'../../../ExamTruth_BZ/x86_64-slc6-gcc44-opt/libExamTruth.so'
p4
S'../../InstallArea/x86_64-slc6-gcc44-opt/lib/libExamTruth.so'
p5
sS'../../Simulation/devProgram/ExamTruth/genConf/ExamTruth'
p6
(dp7
S'../../../Simulation/devProgram/ExamTruth/genConf/ExamTruth/ExamTruth_confDb.py'
p8
S'../../../../InstallArea/python/ExamTruth/ExamTruth_confDb.py'
p9
sS'../../../Simulation/devProgram/ExamTruth/genConf/ExamTruth/ExamTruthConf.py'
p10
S'../../../../InstallArea/python/ExamTruth/ExamTruthConf.py'
p11
ssS'../Simulation/devProgram/ExamTruth/python'
p12
(dp13
S'../../../Simulation/devProgram/ExamTruth/python/ExamTruth/__init__.py'
p14
S'../../../../InstallArea/python/ExamTruth/__init__.py'
p15
sS'../../../Simulation/devProgram/ExamTruth/python/ExamTruth/run.py'
p16
S'../../../../InstallArea/python/ExamTruth/run.py'
p17
ssS'../code/ExamTruth/python'
p18
(dp19
S'../../../code/ExamTruth/python/ExamTruth/run.py'
p20
S'../../../InstallArea/python/ExamTruth/run.py'
p21
sS'../../../code/ExamTruth/python/ExamTruth/__init__.py'
p22
S'../../../InstallArea/python/ExamTruth/__init__.py'
p23
ssS'../../../code/ExamTruth/x86_64-slc6-gcc44-opt/libExamTruth.so'
p24
S'../../../InstallArea/x86_64-slc6-gcc44-opt/lib/libExamTruth.so'
p25
sS'../../code/ExamTruth/genConf/ExamTruth'
p26
(dp27
S'../../../code/ExamTruth/genConf/ExamTruth/ExamTruth_user_confDb.py'
p28
S'../../../InstallArea/python/ExamTruth/ExamTruth_user_confDb.py'
p29
sS'../../../code/ExamTruth/genConf/ExamTruth/ExamTruthConf.py'
p30
S'../../../InstallArea/python/ExamTruth/ExamTruthConf.py'
p31
sS'../../../code/ExamTruth/genConf/ExamTruth/ExamTruth_confDb.py'
p32
S'../../../InstallArea/python/ExamTruth/ExamTruth_confDb.py'
p33
ssS'../../../Simulation/devProgram/ExamTruth/x86_64-slc6-gcc44-opt/libExamTruth.so'
p34
S'../../../../InstallArea/x86_64-slc6-gcc44-opt/lib/libExamTruth.so'
p35
sS'../../../code/ExamTruth_BZ/x86_64-slc6-gcc44-opt/libExamTruth.so'
p36
S'../../../InstallArea/x86_64-slc6-gcc44-opt/lib/libExamTruth.so'
p37
ssb.