(i__main__
LogFile
p0
(dp1
S'_installed_files'
p2
(dp3
S'../MyPromptEfficiencyAlg/python'
p4
(dp5
S'../../../MyPromptEfficiencyAlg/python/MyPromptEfficiencyAlg/__init__.py'
p6
S'../../InstallArea/python/MyPromptEfficiencyAlg/__init__.py'
p7
sS'../../../MyPromptEfficiencyAlg/python/MyPromptEfficiencyAlg/run.py'
p8
S'../../InstallArea/python/MyPromptEfficiencyAlg/run.py'
p9
sS'../../../MyPromptEfficiencyAlg/python/MyPromptEfficiencyAlg/testing.root'
p10
S'../../InstallArea/python/MyPromptEfficiencyAlg/testing.root'
p11
sS'../../../MyPromptEfficiencyAlg/python/MyPromptEfficiencyAlg/efficiency.py'
p12
S'../../InstallArea/python/MyPromptEfficiencyAlg/efficiency.py'
p13
ssS'../code/MyPromptEfficiencyAlg/python'
p14
(dp15
S'../../../code/MyPromptEfficiencyAlg/python/MyPromptEfficiencyAlg/__init__.py'
p16
S'../../../InstallArea/python/MyPromptEfficiencyAlg/__init__.py'
p17
sS'../../../code/MyPromptEfficiencyAlg/python/MyPromptEfficiencyAlg/efficiency.py'
p18
S'../../../InstallArea/python/MyPromptEfficiencyAlg/efficiency.py'
p19
ssS'../../../MyPromptEfficiencyAlg/x86_64-slc6-gcc44-opt/libMyPromptEfficiencyAlg.so'
p20
S'../../InstallArea/x86_64-slc6-gcc44-opt/lib/libMyPromptEfficiencyAlg.so'
p21
sS'../../code/MyPromptEfficiencyAlg/genConf/MyPromptEfficiencyAlg'
p22
(dp23
S'../../../code/MyPromptEfficiencyAlg/genConf/MyPromptEfficiencyAlg/MyPromptEfficiencyAlgConf.py'
p24
S'../../../InstallArea/python/MyPromptEfficiencyAlg/MyPromptEfficiencyAlgConf.py'
p25
sS'../../../code/MyPromptEfficiencyAlg/genConf/MyPromptEfficiencyAlg/MyPromptEfficiencyAlg_user_confDb.py'
p26
S'../../../InstallArea/python/MyPromptEfficiencyAlg/MyPromptEfficiencyAlg_user_confDb.py'
p27
sS'../../../code/MyPromptEfficiencyAlg/genConf/MyPromptEfficiencyAlg/MyPromptEfficiencyAlg_confDb.py'
p28
S'../../../InstallArea/python/MyPromptEfficiencyAlg/MyPromptEfficiencyAlg_confDb.py'
p29
ssS'../../../code/MyPromptEfficiencyAlg/x86_64-slc6-gcc44-opt/libMyPromptEfficiencyAlg.so'
p30
S'../../../InstallArea/x86_64-slc6-gcc44-opt/lib/libMyPromptEfficiencyAlg.so'
p31
sS'../../MyPromptEfficiencyAlg/genConf/MyPromptEfficiencyAlg'
p32
(dp33
S'../../../MyPromptEfficiencyAlg/genConf/MyPromptEfficiencyAlg/MyPromptEfficiencyAlg_user_confDb.py'
p34
S'../../InstallArea/python/MyPromptEfficiencyAlg/MyPromptEfficiencyAlg_user_confDb.py'
p35
sS'../../../MyPromptEfficiencyAlg/genConf/MyPromptEfficiencyAlg/MyPromptEfficiencyAlgConf.py'
p36
S'../../InstallArea/python/MyPromptEfficiencyAlg/MyPromptEfficiencyAlgConf.py'
p37
sS'../../../MyPromptEfficiencyAlg/genConf/MyPromptEfficiencyAlg/MyPromptEfficiencyAlg_confDb.py'
p38
S'../../InstallArea/python/MyPromptEfficiencyAlg/MyPromptEfficiencyAlg_confDb.py'
p39
sssb.